Certificate:
    Data:
        Version: 3 (0x2)
        Serial Number: 8 (0x8)
    Signature Algorithm: sha256WithRSAEncryption
        Issuer: CN=R2 - root CA
        Validity
            Not Before: Aug 22 20:45:06 2016 GMT
            Not After : Aug 20 20:45:06 2026 GMT
        Subject: CN=r1.oracleiaas.com internal CA
        Subject Public Key Info:
            Public Key Algorithm: rsaEncryption
                Public-Key: (4096 bit)
                Modulus:
                    00:e4:e1:db:3f:0e:63:46:90:eb:2d:7f:13:17:10:
                    e3:01:85:22:36:db:67:09:76:59:fa:41:10:5a:57:
                    da:50:0b:82:8c:b9:ae:51:78:ee:d3:93:99:6a:8b:
                    5a:75:05:fa:4a:0c:f8:3b:56:36:a4:f4:80:1a:1b:
                    a1:3e:2b:2c:49:12:2c:3f:76:7e:af:ce:08:e5:66:
                    ba:c5:0d:f0:22:cf:31:e5:1e:b5:9f:04:11:63:13:
                    0c:ba:dc:a1:df:4b:75:5c:3c:67:99:6a:53:02:64:
                    fb:2c:0f:92:b8:99:08:36:6e:2e:28:17:33:a9:93:
                    1d:11:7a:00:bd:58:9c:ab:2b:bf:a4:7e:a6:a3:6f:
                    c0:4d:8a:f8:0d:00:48:79:4b:27:32:f1:f0:a8:84:
                    2f:41:44:78:e5:51:7f:32:b7:0e:31:23:fd:7a:e0:
                    11:e1:e7:38:61:e8:ae:ed:bf:36:d5:68:a4:71:07:
                    d0:8c:15:90:88:6f:9d:4c:76:d6:0a:d0:c2:9b:d9:
                    84:79:d2:d6:84:04:c5:fb:e0:18:35:4e:0b:8d:b9:
                    9e:37:ea:ee:7a:31:67:28:2e:59:58:aa:af:ff:6e:
                    9d:a7:86:0c:44:e2:a3:5f:aa:62:24:69:f5:a8:dd:
                    91:be:8e:01:54:9e:8c:03:3e:8c:f2:2c:17:f3:1d:
                    44:10:37:6c:3b:5d:b7:ff:51:b5:ba:54:b3:24:70:
                    d6:9a:b9:be:a6:b5:07:d8:c5:72:8a:8d:bf:1f:04:
                    da:bb:f9:ba:8f:15:8a:fe:4e:2d:58:b6:01:49:f4:
                    fa:3b:5d:f9:f8:1a:fa:9c:c2:2b:00:c4:0e:03:82:
                    b9:3b:03:f5:85:20:1d:3e:7b:9a:73:11:6f:77:67:
                    7d:c4:b9:d9:0c:a9:d5:90:9b:e6:10:32:24:55:f2:
                    69:74:c7:22:94:b6:6f:13:ea:9c:89:22:47:d2:12:
                    91:dd:d2:e3:0c:95:2c:27:9f:02:52:73:2f:06:c1:
                    63:fe:24:da:7d:81:74:33:99:d1:88:69:3e:c3:4f:
                    e8:7a:d7:15:63:29:97:38:c1:13:b3:7f:81:73:12:
                    1b:76:f8:fa:df:cc:cb:84:16:bd:0c:7c:9f:c7:9c:
                    27:d7:81:d3:d8:47:9d:53:a9:44:63:22:e1:b5:01:
                    02:ad:d4:7d:1f:39:eb:e7:07:10:3c:2d:82:6a:67:
                    55:ce:20:10:95:09:8e:1b:eb:3d:33:a0:6d:5f:63:
                    a6:81:95:ce:59:6e:68:a4:1e:fe:78:c2:7c:83:97:
                    46:06:cc:1b:66:ac:1f:15:e0:fc:14:cb:9e:38:71:
                    86:c9:1d:fa:ce:b5:d9:23:de:cc:b5:d0:3f:a3:7c:
                    98:37:07
                Exponent: 65537 (0x10001)
        X509v3 extensions:
            X509v3 Basic Constraints: 
                CA:TRUE, pathlen:2
            X509v3 Subject Key Identifier: 
                55:1B:77:CD:E7:6B:25:23:85:70:F7:94:4C:D4:84:E5:B0:16:C1:85
            X509v3 Authority Key Identifier: 
                keyid:1A:6A:8C:9F:F3:5A:43:F3:7E:25:4E:1F:AE:1D:21:AD:CD:61:7B:B0
                DirName:/CN=R2 - root CA
                serial:9B:1E:87:80:CF:A2:A8:93

            X509v3 Key Usage: 
                Certificate Sign, CRL Sign
    Signature Algorithm: sha256WithRSAEncryption
         8c:a2:9e:c3:d1:09:65:77:9e:81:ad:f0:7f:7b:98:da:37:a1:
         db:60:9d:13:68:02:a2:04:89:d1:90:37:5b:07:37:77:ff:61:
         ef:ed:7f:b7:52:23:8b:43:61:6a:e7:62:c4:38:38:45:cd:25:
         6d:15:3f:11:fd:56:eb:5d:df:94:d2:f6:4a:2c:5f:b3:f1:e5:
         a8:90:01:3e:61:85:1b:00:ee:79:7c:3e:e2:67:f7:82:f7:08:
         13:e0:3f:7e:a3:82:2b:67:2c:04:26:26:df:6a:bf:7a:58:ac:
         4a:d3:08:cd:cc:20:27:7e:8f:e0:9f:be:0b:95:71:e2:ab:6d:
         c0:8b:37:3d:62:03:8c:e8:c4:81:15:4f:03:03:e6:4f:4a:06:
         ff:b9:e6:f6:85:47:54:cf:1f:8e:1c:fa:9d:f7:b6:51:b8:18:
         42:63:1b:48:ee:be:b0:6c:26:70:18:25:89:5d:e6:c9:a3:f1:
         9f:32:87:08:08:d2:6a:93:bc:e3:2c:1e:70:e2:e6:9e:bf:f2:
         bf:6d:f6:1a:96:94:62:d5:fc:f9:33:ea:d3:5a:bf:04:f5:3b:
         18:fc:3f:4e:1b:8d:ec:fa:5d:9a:a0:58:ff:81:5f:5e:ae:4f:
         25:81:4e:80:4a:32:df:b6:c5:f7:83:85:4a:62:7b:ed:d1:cd:
         21:88:7a:c7:1c:b1:18:f1:bd:40:90:c9:52:c6:17:b4:aa:76:
         57:7e:c3:08:bd:93:12:61:69:a6:1e:08:58:34:ed:9e:40:14:
         ba:d6:8f:a7:d2:72:de:71:5f:5d:72:9b:d0:ba:b3:94:32:ad:
         85:d4:c0:95:52:40:7d:b9:78:d3:f3:8b:c9:c6:22:d5:51:dd:
         2c:ca:91:ea:00:8d:18:1b:f9:93:fe:38:11:46:3a:a0:df:af:
         22:fc:a7:24:25:c9:02:0a:c3:e9:3c:85:b1:e4:77:76:46:4b:
         26:9f:42:2d:83:1e:66:15:6a:17:2d:70:7c:92:47:c8:1c:0b:
         d7:af:f1:30:b3:6f:a0:d1:5c:57:8e:47:bb:a0:54:65:e5:5d:
         b0:b6:02:1a:d1:69:b4:26:51:d4:fd:d8:4d:47:df:86:79:6f:
         1f:70:24:ae:98:d6:5b:88:19:80:bb:dc:83:70:e6:35:5d:50:
         21:0b:bf:50:04:3a:82:87:60:47:97:f9:07:8c:56:6b:ca:d7:
         b6:9f:8c:dc:ca:13:5e:4d:24:4f:75:62:7d:69:c3:1e:b8:d9:
         c9:8b:85:6c:06:ad:c4:2f:85:ed:64:ce:02:13:f1:1e:7e:7b:
         9a:90:ad:b1:13:48:a5:50:c1:27:41:b2:50:0d:bc:85:00:e6:
         1b:a6:e9:97:92:ce:d1:41
-----BEGIN CERTIFICATE-----
MIIFRDCCAyygAwIBAgIBCDANBgkqhkiG9w0BAQsFADAXMRUwEwYDVQQDEwxSMiAt
IHJvb3QgQ0EwHhcNMTYwODIyMjA0NTA2WhcNMjYwODIwMjA0NTA2WjAoMSYwJAYD
VQQDEx1yMS5vcmFjbGVpYWFzLmNvbSBpbnRlcm5hbCBDQTCCAiIwDQYJKoZIhvcN
AQEBBQADggIPADCCAgoCggIBAOTh2z8OY0aQ6y1/ExcQ4wGFIjbbZwl2WfpBEFpX
2lALgoy5rlF47tOTmWqLWnUF+koM+DtWNqT0gBoboT4rLEkSLD92fq/OCOVmusUN
8CLPMeUetZ8EEWMTDLrcod9LdVw8Z5lqUwJk+ywPkriZCDZuLigXM6mTHRF6AL1Y
nKsrv6R+pqNvwE2K+A0ASHlLJzLx8KiEL0FEeOVRfzK3DjEj/XrgEeHnOGHoru2/
NtVopHEH0IwVkIhvnUx21grQwpvZhHnS1oQExfvgGDVOC425njfq7noxZyguWViq
r/9unaeGDETio1+qYiRp9ajdkb6OAVSejAM+jPIsF/MdRBA3bDtdt/9RtbpUsyRw
1pq5vqa1B9jFcoqNvx8E2rv5uo8Viv5OLVi2AUn0+jtd+fga+pzCKwDEDgOCuTsD
9YUgHT57mnMRb3dnfcS52Qyp1ZCb5hAyJFXyaXTHIpS2bxPqnIkiR9ISkd3S4wyV
LCefAlJzLwbBY/4k2n2BdDOZ0YhpPsNP6HrXFWMplzjBE7N/gXMSG3b4+t/My4QW
vQx8n8ecJ9eB09hHnVOpRGMi4bUBAq3UfR856+cHEDwtgmpnVc4gEJUJjhvrPTOg
bV9jpoGVzlluaKQe/njCfIOXRgbMG2asHxXg/BTLnjhxhskd+s612SPezLXQP6N8
mDcHAgMBAAGjgYkwgYYwDwYDVR0TBAgwBgEB/wIBAjAdBgNVHQ4EFgQUVRt3zedr
JSOFcPeUTNSE5bAWwYUwRwYDVR0jBEAwPoAUGmqMn/NaQ/N+JU4frh0hrc1he7Ch
G6QZMBcxFTATBgNVBAMTDFIyIC0gcm9vdCBDQYIJAJseh4DPoqiTMAsGA1UdDwQE
AwIBBjANBgkqhkiG9w0BAQsFAAOCAgEAjKKew9EJZXeega3wf3uY2jeh22CdE2gC
ogSJ0ZA3Wwc3d/9h7+1/t1Iji0NhaudixDg4Rc0lbRU/Ef1W613flNL2Sixfs/Hl
qJABPmGFGwDueXw+4mf3gvcIE+A/fqOCK2csBCYm32q/elisStMIzcwgJ36P4J++
C5Vx4qttwIs3PWIDjOjEgRVPAwPmT0oG/7nm9oVHVM8fjhz6nfe2UbgYQmMbSO6+
sGwmcBgliV3myaPxnzKHCAjSapO84ywecOLmnr/yv232GpaUYtX8+TPq01q/BPU7
GPw/ThuN7PpdmqBY/4FfXq5PJYFOgEoy37bF94OFSmJ77dHNIYh6xxyxGPG9QJDJ
UsYXtKp2V37DCL2TEmFpph4IWDTtnkAUutaPp9Jy3nFfXXKb0LqzlDKthdTAlVJA
fbl40/OLycYi1VHdLMqR6gCNGBv5k/44EUY6oN+vIvynJCXJAgrD6TyFseR3dkZL
Jp9CLYMeZhVqFy1wfJJHyBwL16/xMLNvoNFcV45Hu6BUZeVdsLYCGtFptCZR1P3Y
TUffhnlvH3AkrpjWW4gZgLvcg3DmNV1QIQu/UAQ6godgR5f5B4xWa8rXtp+M3MoT
Xk0kT3VifWnDHrjZyYuFbAatxC+F7WTOAhPxHn57mpCtsRNIpVDBJ0GyUA28hQDm
G6bpl5LO0UE=
-----END CERTIFICATE-----
Certificate:
    Data:
        Version: 3 (0x2)
        Serial Number:
            9b:1e:87:80:cf:a2:a8:93
        Signature Algorithm: sha256WithRSAEncryption
        Issuer: CN=R2 - root CA
        Validity
            Not Before: Feb  2 18:24:41 2016 GMT
            Not After : Jan 30 18:24:41 2026 GMT
        Subject: CN=R2 - root CA
        Subject Public Key Info:
            Public Key Algorithm: rsaEncryption
            RSA Public Key: (4096 bit)
                Modulus (4096 bit):
                    00:c9:af:41:52:95:25:f5:88:f5:50:83:06:59:26:
                    a7:bd:ab:7c:b9:0c:ee:66:37:07:3c:62:67:20:71:
                    bd:a1:41:cb:f0:d7:b4:94:3d:82:b1:80:7a:c5:b7:
                    ab:42:98:02:03:e7:42:4d:5d:54:0d:ef:3b:60:46:
                    fc:40:84:51:25:ac:13:3b:6b:5d:a2:40:47:93:fb:
                    7e:58:b8:92:4c:39:55:d1:7c:53:c0:10:12:54:66:
                    ee:58:2e:dc:b7:70:37:8c:2b:cb:d1:43:23:33:66:
                    8e:33:8c:7f:ad:e1:32:4f:8d:f4:6f:ad:9d:d9:d0:
                    0c:f0:73:00:c5:c8:b5:f0:8a:2f:48:a6:91:92:e0:
                    87:cd:4c:bd:a4:6a:a4:d3:47:f8:4b:28:60:2b:1f:
                    ae:59:65:41:28:85:88:87:fc:78:bf:21:3a:3e:95:
                    45:10:29:8a:2f:67:b9:fe:c5:37:e2:05:fd:b1:39:
                    6d:4e:39:dd:6e:f2:de:2f:e8:4e:7d:5d:f9:f3:64:
                    18:a2:b3:8a:c6:78:65:9f:38:c6:37:84:84:e8:ae:
                    89:52:40:75:e0:81:0f:33:72:42:47:0d:4d:a5:fe:
                    d4:c5:b0:5a:7e:d1:db:0f:f8:34:22:3f:5e:27:73:
                    38:1e:be:f0:e8:c1:d6:f3:d1:b6:f0:25:c4:bc:8a:
                    37:1b:0d:1a:53:1b:7b:42:2a:31:da:a3:33:1d:bd:
                    df:89:b9:18:5b:6f:cc:ff:a4:0d:76:d0:e1:39:32:
                    35:8a:e6:fa:68:b4:a1:9a:9a:43:de:a9:97:0b:e1:
                    64:cb:ef:42:55:d9:6a:45:64:d3:7d:d4:85:2a:8c:
                    10:aa:5c:22:39:6e:3f:6c:77:84:2f:8c:fc:2f:2a:
                    0e:82:25:b4:25:66:33:d0:a7:9c:c5:92:5f:29:13:
                    93:e9:6f:d8:3c:ef:dc:f1:15:2c:fd:bf:55:38:35:
                    96:f4:4f:9b:13:4b:6e:cc:b5:fe:37:1f:d7:75:a3:
                    86:67:83:7e:77:7a:21:ba:9d:5f:40:bd:89:ab:80:
                    ec:91:fd:dd:0e:7f:f1:81:75:7c:43:8e:7a:2c:46:
                    1e:c3:4b:a9:1a:f4:56:0a:9e:58:7c:0c:fb:cd:b4:
                    e0:a2:87:b6:2a:33:0d:8d:1d:47:2e:a8:26:a6:89:
                    01:01:38:80:a5:55:9a:8f:85:81:8f:a4:96:19:d0:
                    97:f0:04:45:fd:ba:c2:b7:36:79:36:c0:48:50:78:
                    b3:d4:82:d3:ab:9d:03:9c:b0:b1:8b:c6:02:8b:b2:
                    e9:93:67:6a:4d:77:57:c4:e6:e3:e6:04:42:ad:53:
                    59:42:06:a3:29:a5:b2:88:5a:de:4e:f5:f0:59:53:
                    26:13:03
                Exponent: 65537 (0x10001)
        X509v3 extensions:
            X509v3 Subject Key Identifier: 
                1A:6A:8C:9F:F3:5A:43:F3:7E:25:4E:1F:AE:1D:21:AD:CD:61:7B:B0
            X509v3 Authority Key Identifier: 
                keyid:1A:6A:8C:9F:F3:5A:43:F3:7E:25:4E:1F:AE:1D:21:AD:CD:61:7B:B0
                DirName:/CN=R2 - root CA
                serial:9B:1E:87:80:CF:A2:A8:93

            X509v3 Basic Constraints: 
                CA:TRUE
            X509v3 Key Usage: 
                Certificate Sign, CRL Sign
    Signature Algorithm: sha256WithRSAEncryption
        45:a2:e2:34:b7:6d:70:d0:5b:0c:d8:bb:2d:61:19:2e:a8:0e:
        f2:75:c2:0d:fe:a8:f8:28:fc:dd:c4:b2:1c:0b:af:4d:b5:f3:
        a1:b1:06:cf:24:9a:65:dc:2f:05:4f:d0:8b:0c:46:91:23:10:
        eb:6e:c3:50:6e:27:a8:c5:f6:25:79:72:71:e2:5a:0d:62:08:
        e3:d6:e2:cf:4c:92:37:a5:d7:5f:b1:15:9f:5a:0f:40:95:a5:
        1c:59:ae:59:f9:dd:1d:cb:1b:02:06:5f:fa:11:e1:43:40:65:
        2a:ca:31:67:f7:a0:f5:0a:15:58:18:56:92:68:ae:c9:aa:61:
        cd:06:17:e2:de:91:05:ae:b8:29:78:ed:21:6a:94:3f:fb:73:
        5d:f7:04:2e:48:ae:9c:ad:d9:0c:a0:3f:01:f1:d7:a6:e8:63:
        1f:e2:b5:4b:95:17:97:51:3d:23:ac:47:84:33:7c:c6:5c:b1:
        c1:c3:23:91:fd:cb:73:f8:ee:3a:23:79:e7:80:10:a2:cc:7d:
        06:85:3d:f5:b0:86:3e:64:7f:a8:63:c3:20:0b:4e:3e:fc:6e:
        61:0d:eb:d8:2e:c4:df:58:c5:a0:f0:64:8d:b3:89:9a:a1:cb:
        51:f4:ca:b4:2d:ce:82:4f:7a:50:cf:f6:47:b2:1b:39:32:d8:
        7f:a5:05:b9:a9:8d:21:69:4d:27:be:c8:e8:2b:bd:68:25:22:
        8d:30:23:66:ef:6b:d5:c1:13:03:45:1f:25:a0:5b:3a:9d:a8:
        8f:4e:30:16:67:0e:01:e1:37:25:5d:e5:e0:a4:78:63:d2:4d:
        16:52:30:b1:12:92:51:a1:7d:13:6d:57:17:60:8b:d8:57:c3:
        be:22:f0:01:ae:5a:9b:8a:a7:93:16:d5:4b:ec:8b:a5:75:bb:
        c1:6b:66:66:8f:d3:2b:7b:8b:8e:71:3e:d3:2f:42:c8:99:20:
        1c:de:e9:cd:da:cc:7f:ed:e5:54:2f:63:bc:d2:1d:57:13:ff:
        15:d3:6d:08:d3:a1:17:a7:ab:f8:ff:24:2c:39:69:ea:3b:0b:
        da:58:04:6c:2e:a5:f6:32:da:89:56:da:61:5c:ca:8c:65:f2:
        f5:97:5c:32:d6:22:75:89:4e:b3:89:b0:25:f4:ae:34:40:4b:
        67:17:17:f7:b4:b5:6a:df:2d:85:7e:8c:26:7d:21:fb:28:51:
        c4:0f:04:df:e1:af:4e:ab:91:d7:17:80:cc:48:44:16:f1:cb:
        65:a4:09:b9:21:0f:be:f8:a3:de:d0:2c:f2:9f:5b:61:de:70:
        c8:51:9c:f0:56:f4:6c:15:85:f5:63:f2:c2:bb:2a:1a:4a:ca:
        85:10:cb:d7:53:6b:1e:5b
-----BEGIN CERTIFICATE-----
MIIFODCCAyCgAwIBAgIJAJseh4DPoqiTMA0GCSqGSIb3DQEBCwUAMBcxFTATBgNV
BAMTDFIyIC0gcm9vdCBDQTAeFw0xNjAyMDIxODI0NDFaFw0yNjAxMzAxODI0NDFa
MBcxFTATBgNVBAMTDFIyIC0gcm9vdCBDQTCCAiIwDQYJKoZIhvcNAQEBBQADggIP
ADCCAgoCggIBAMmvQVKVJfWI9VCDBlkmp72rfLkM7mY3BzxiZyBxvaFBy/DXtJQ9
grGAesW3q0KYAgPnQk1dVA3vO2BG/ECEUSWsEztrXaJAR5P7fli4kkw5VdF8U8AQ
ElRm7lgu3LdwN4wry9FDIzNmjjOMf63hMk+N9G+tndnQDPBzAMXItfCKL0imkZLg
h81MvaRqpNNH+EsoYCsfrlllQSiFiIf8eL8hOj6VRRApii9nuf7FN+IF/bE5bU45
3W7y3i/oTn1d+fNkGKKzisZ4ZZ84xjeEhOiuiVJAdeCBDzNyQkcNTaX+1MWwWn7R
2w/4NCI/XidzOB6+8OjB1vPRtvAlxLyKNxsNGlMbe0IqMdqjMx2934m5GFtvzP+k
DXbQ4TkyNYrm+mi0oZqaQ96plwvhZMvvQlXZakVk033UhSqMEKpcIjluP2x3hC+M
/C8qDoIltCVmM9CnnMWSXykTk+lv2Dzv3PEVLP2/VTg1lvRPmxNLbsy1/jcf13Wj
hmeDfnd6IbqdX0C9iauA7JH93Q5/8YF1fEOOeixGHsNLqRr0VgqeWHwM+8204KKH
tiozDY0dRy6oJqaJAQE4gKVVmo+FgY+klhnQl/AERf26wrc2eTbASFB4s9SC06ud
A5ywsYvGAouy6ZNnak13V8Tm4+YEQq1TWUIGoymlsoha3k718FlTJhMDAgMBAAGj
gYYwgYMwHQYDVR0OBBYEFBpqjJ/zWkPzfiVOH64dIa3NYXuwMEcGA1UdIwRAMD6A
FBpqjJ/zWkPzfiVOH64dIa3NYXuwoRukGTAXMRUwEwYDVQQDEwxSMiAtIHJvb3Qg
Q0GCCQCbHoeAz6KokzAMBgNVHRMEBTADAQH/MAsGA1UdDwQEAwIBBjANBgkqhkiG
9w0BAQsFAAOCAgEARaLiNLdtcNBbDNi7LWEZLqgO8nXCDf6o+Cj83cSyHAuvTbXz
obEGzySaZdwvBU/QiwxGkSMQ627DUG4nqMX2JXlyceJaDWII49biz0ySN6XXX7EV
n1oPQJWlHFmuWfndHcsbAgZf+hHhQ0BlKsoxZ/eg9QoVWBhWkmiuyaphzQYX4t6R
Ba64KXjtIWqUP/tzXfcELkiunK3ZDKA/AfHXpuhjH+K1S5UXl1E9I6xHhDN8xlyx
wcMjkf3Lc/juOiN554AQosx9BoU99bCGPmR/qGPDIAtOPvxuYQ3r2C7E31jFoPBk
jbOJmqHLUfTKtC3Ogk96UM/2R7IbOTLYf6UFuamNIWlNJ77I6Cu9aCUijTAjZu9r
1cETA0UfJaBbOp2oj04wFmcOAeE3JV3l4KR4Y9JNFlIwsRKSUaF9E21XF2CL2FfD
viLwAa5am4qnkxbVS+yLpXW7wWtmZo/TK3uLjnE+0y9CyJkgHN7pzdrMf+3lVC9j
vNIdVxP/FdNtCNOhF6er+P8kLDlp6jsL2lgEbC6l9jLaiVbaYVzKjGXy9ZdcMtYi
dYlOs4mwJfSuNEBLZxcX97S1at8thX6MJn0h+yhRxA8E3+GvTquR1xeAzEhEFvHL
ZaQJuSEPvvij3tAs8p9bYd5wyFGc8Fb0bBWF9WPywrsqGkrKhRDL11NrHls=
-----END CERTIFICATE-----
-----BEGIN CERTIFICATE-----
MIIFQzCCAyugAwIBAgIBAjANBgkqhkiG9w0BAQsFADAxMS8wLQYDVQQDEyZNaXNz
aW9uIENvbnRyb2wgUm9vdCBDQSAodHJhbnNpdGlvbmFsKTAeFw0xNjA4MjIyMDQx
MzVaFw0yNjA4MjAyMDQxMzVaMDExLzAtBgNVBAMTJk1pc3Npb24gQ29udHJvbCBS
b290IENBICh0cmFuc2l0aW9uYWwpMIICIjANBgkqhkiG9w0BAQEFAAOCAg8AMIIC
CgKCAgEA0McS4ziKJnAGoUpHTBEQdkT8motTFPEvhN1RCbEzGF0FIskJsX7TIZvA
L8o6rQFvpxCLqLb+NlmA2X/nVAFzyNWC+ecMgwUZCwqqVzl141DDXet3KcJ/DJnw
7unFNdml25rFFvwM/godKGpRM5yMTIC67Ke6HDJoeJOr6s+XmJNQWT1+5NhkGauu
LEpVT4Z5o4tpFRokobt7/70X+LEtu1LaSRz9h+rWDyiSu53YOdkfEKG/pY2a8gjA
KotteSmvB+xsdT2lEbaZH+/WaVl8WY+IIR/KtS1H66DPjWMZXLhk4xyHASFrIs/p
HYzuSuCk1/6z0+O199FGMffMnSAn809+M7QP+oTwhceyAFW7Ou4UVvcQ+tRMXxGF
DPv7Xbh2IhVwbmqFLxfgtJvkTvtwhHHaO07n6KmfBHCMfHVenarLhlxH+v15mm8N
2c3nhwzHCe684CrU4AhrBwIY6gWWfEFjVMQkoJpZY2qh3OUuIvdEI/Yg9QggpNZJ
Oa18XHBqkNkD20P8Buj6XaPUxCXbcx9n5yzW5kQwZYwGGuirY7anwCOe2iNe9RG9
WbM744Kho1M+ipJWaSigIi40BVhyoELcFc9w1RIhWLWNSxpd89XVK7/BU8Qsb9ya
0doMN13sRA2SXg6jbn81MCQXSvuQHrzjQv0EHADoBEGrYCWXRIECAwEAAaNmMGQw
DgYDVR0PAQH/BAQDAgEGMBIGA1UdEwEB/wQIMAYBAf8CAQIwHQYDVR0OBBYEFJYS
xRgV78HLF5J4QZPPtVObflUpMB8GA1UdIwQYMBaAFJYSxRgV78HLF5J4QZPPtVOb
flUpMA0GCSqGSIb3DQEBCwUAA4ICAQA2gA0YdqFHONCCELGs1y+d9tudv6Z5OjeG
XqYMlyqW4b8JyWZ2pFyQHBgUYj6WEsgimF3LJSzKXYmmw7JxT6P6OkCTcRADO6k2
ZIaM+GI69pmRtDbeRfM/jQrgDNy0uqRjF9lQooUGiMJf3QkHOoFjZqrS2GHMp/c9
pw9lbAZttey3IpkbmQ/74jAPGOshjJSCpSAuhxuyV52Xfkcfgsi5jByOLOtaW1yV
pbOZmxI9chQK5S+GtLqAaly9aM8yxChE3v/kKDYdrJ5X1lDDks+koitWsD9Hj79o
Z1qjR/vME+KvjKQ/qmtlN3G7foeajguDwyeEmYx0sqAe31uoTq2Mydz/5eY3uUbK
/aWmlsjU95EeOuu7wQl+b4eTKu1AqhQYq6/IRmgge2segqgBLf2ZIHuGMT9lyXE4
mejZ9gff30UnvBxQ70pLNYkp44ePRfx9jZHssIfqvkp7auejIOnIF6VG2MBGsQrT
ioJM0OrwZmax6c8r7nzeO82+LW72eABV3YHlu1heWY0RvKIw2KsYQ1pQGdkMTqUB
I5vxuu+5qFfdar8kFJmcaibq9WRn0108AVjSdaKm0q3a9acK8h0cAzWmlybOeXiW
af841FfHok0QFywrjSdTBvLbPWys1cDOku7d4Z62pXO2Wte8axYmt7hjGlGuAM06
j3tjZCAkyg==
-----END CERTIFICATE-----
